target datalayout = "e-m:e-p270:32:32-p271:32:32-p272:64:64-i64:64-i128:128-f80:128-n8:16:32:64-S128"
target triple = "x86_64-unknown-linux-gnu"

%struct.tsd_s = type { i8, i8, i64, i64, i64, i64, i64, i64, i64, i64, i64, i64, i64, i64, ptr, i64, i64, i64, ptr, ptr, %struct.ticker_geom_s, i8, %struct.tsd_binshards_s, %struct.tsd_link_t, i8, %struct.peak_s, %struct.activity_callback_thunk_s, %struct.tcache_slow_s, %struct.rtree_ctx_s, %struct.atomic_u8_t, i64, i64, i64, i64, %struct.tcache_s, %struct.witness_tsd_s }
%struct.ticker_geom_s = type { i32, i32 }
%struct.tsd_binshards_s = type { [39 x i8] }
%struct.tsd_link_t = type { ptr, ptr }
%struct.peak_s = type { i64, i64 }
%struct.activity_callback_thunk_s = type { ptr, ptr }
%struct.tcache_slow_s = type { %struct.anon.8, %struct.cache_bin_array_descriptor_s, ptr, i32, [39 x i8], [39 x i8], [39 x i8], ptr, ptr }
%struct.anon.8 = type { ptr, ptr }
%struct.cache_bin_array_descriptor_s = type { %struct.anon.9, ptr }
%struct.anon.9 = type { ptr, ptr }
%struct.rtree_ctx_s = type { [16 x %struct.rtree_ctx_cache_elm_s], [8 x %struct.rtree_ctx_cache_elm_s] }
%struct.rtree_ctx_cache_elm_s = type { i64, ptr }
%struct.atomic_u8_t = type { i8 }
%struct.tcache_s = type { ptr, [76 x %struct.cache_bin_s] }
%struct.cache_bin_s = type { ptr, %struct.cache_bin_stats_s, i16, i16, i16 }
%struct.cache_bin_stats_s = type { i64 }
%struct.witness_tsd_s = type { %struct.witness_list_t, i8 }
%struct.witness_list_t = type { ptr }

; Function Attrs: nounwind uwtable
define hidden void @arena_migrate(ptr noundef %tsd, ptr noundef %oldarena, ptr noundef %newarena) #0 {
entry:
  %tsd.addr.i9 = alloca ptr, align 8
  %tsd.addr.i7 = alloca ptr, align 8
  %tsd.addr.i5 = alloca ptr, align 8
  %state.i = alloca i8, align 1
  %tsd.addr.i4 = alloca ptr, align 8
  %tsd.addr.i = alloca ptr, align 8
  %val.addr.i = alloca ptr, align 8
  %tsd.addr = alloca ptr, align 8
  %oldarena.addr = alloca ptr, align 8
  %newarena.addr = alloca ptr, align 8
  store ptr %tsd, ptr %tsd.addr, align 8
  store ptr %oldarena, ptr %oldarena.addr, align 8
  store ptr %newarena, ptr %newarena.addr, align 8
  br label %do.body

do.body:                                          ; preds = %entry
  br label %do.end

do.end:                                           ; preds = %do.body
  br label %do.body1

do.body1:                                         ; preds = %do.end
  br label %do.end2

do.end2:                                          ; preds = %do.body1
  %0 = load ptr, ptr %oldarena.addr, align 8
  call void @arena_nthreads_dec(ptr noundef %0, i1 noundef zeroext false)
  %1 = load ptr, ptr %newarena.addr, align 8
  call void @arena_nthreads_inc(ptr noundef %1, i1 noundef zeroext false)
  %2 = load ptr, ptr %tsd.addr, align 8
  %3 = load ptr, ptr %newarena.addr, align 8
  store ptr %2, ptr %tsd.addr.i, align 8
  store ptr %3, ptr %val.addr.i, align 8
  %4 = load ptr, ptr %val.addr.i, align 8
  %5 = load ptr, ptr %tsd.addr.i, align 8
  store ptr %5, ptr %tsd.addr.i5, align 8
  %6 = load ptr, ptr %tsd.addr.i5, align 8
  store ptr %6, ptr %tsd.addr.i7, align 8
  %7 = load ptr, ptr %tsd.addr.i7, align 8
  %state.i8 = getelementptr inbounds %struct.tsd_s, ptr %7, i32 0, i32 29
  %8 = load i8, ptr %state.i8, align 8
  store i8 %8, ptr %state.i, align 1
  %9 = load ptr, ptr %tsd.addr.i5, align 8
  store ptr %9, ptr %tsd.addr.i9, align 8
  %10 = load ptr, ptr %tsd.addr.i9, align 8
  %cant_access_tsd_items_directly_use_a_getter_or_setter_arena.i = getelementptr inbounds %struct.tsd_s, ptr %10, i32 0, i32 19
  store ptr %4, ptr %cant_access_tsd_items_directly_use_a_getter_or_setter_arena.i, align 8
  %11 = load ptr, ptr %oldarena.addr, align 8
  %call = call i32 @arena_nthreads_get(ptr noundef %11, i1 noundef zeroext false)
  %cmp = icmp eq i32 %call, 0
  br i1 %cmp, label %if.then, label %if.end

if.then:                                          ; preds = %do.end2
  %12 = load ptr, ptr %tsd.addr, align 8
  store ptr %12, ptr %tsd.addr.i4, align 8
  %13 = load ptr, ptr %tsd.addr.i4, align 8
  %14 = load ptr, ptr %oldarena.addr, align 8
  call void @arena_decay(ptr noundef %13, ptr noundef %14, i1 noundef zeroext false, i1 noundef zeroext true)
  br label %if.end

if.end:                                           ; preds = %if.then, %do.end2
  ret void
}